; Function Attrs: nofree norecurse nosync nounwind memory(argmem: read) uwtable
define zeroext i1 @ggml_can_repeat(ptr noundef readonly captures(none) %0, ptr noundef readonly captures(none) %1) local_unnamed_addr #18 {
  %3 = getelementptr inbounds nuw i8, ptr %0, i64 16
  br label %4

4:                                                ; preds = %4, %2
  %indvars.iv.i = phi i64 [ 0, %2 ], [ %indvars.iv.next.i, %4 ]
  %5 = getelementptr inbounds nuw [4 x i64], ptr %3, i64 0, i64 %indvars.iv.i
  %6 = load i64, ptr %5, align 8, !tbaa !39
  %7 = icmp eq i64 %6, 0
  %indvars.iv.next.i = add nuw nsw i64 %indvars.iv.i, 1
  %exitcond.not.i = icmp eq i64 %indvars.iv.next.i, 4
  %or.cond.i = select i1 %7, i1 true, i1 %exitcond.not.i
  br i1 %or.cond.i, label %ggml_is_empty.exit, label %4, !llvm.loop !58

ggml_is_empty.exit:                               ; preds = %4
  %8 = getelementptr inbounds nuw i8, ptr %1, i64 16
  br i1 %7, label %.preheader, label %12

.preheader:                                       ; preds = %ggml_is_empty.exit, %.preheader
  %indvars.iv.i10 = phi i64 [ %indvars.iv.next.i11, %.preheader ], [ 0, %ggml_is_empty.exit ]
  %9 = getelementptr inbounds nuw [4 x i64], ptr %8, i64 0, i64 %indvars.iv.i10
  %10 = load i64, ptr %9, align 8, !tbaa !39
  %11 = icmp eq i64 %10, 0
  %indvars.iv.next.i11 = add nuw nsw i64 %indvars.iv.i10, 1
  %exitcond.not.i12 = icmp eq i64 %indvars.iv.next.i11, 4
  %or.cond.i13 = select i1 %11, i1 true, i1 %exitcond.not.i12
  br i1 %or.cond.i13, label %ggml_is_empty.exit14, label %.preheader, !llvm.loop !58

12:                                               ; preds = %ggml_is_empty.exit
  %13 = load i64, ptr %8, align 8, !tbaa !39
  %14 = load i64, ptr %3, align 8, !tbaa !39
  %15 = srem i64 %13, %14
  %16 = icmp eq i64 %15, 0
  br i1 %16, label %17, label %ggml_is_empty.exit14

17:                                               ; preds = %12
  %18 = getelementptr inbounds nuw i8, ptr %1, i64 24
  %19 = load i64, ptr %18, align 8, !tbaa !39
  %20 = getelementptr inbounds nuw i8, ptr %0, i64 24
  %21 = load i64, ptr %20, align 8, !tbaa !39
  %22 = srem i64 %19, %21
  %23 = icmp eq i64 %22, 0
  br i1 %23, label %24, label %ggml_is_empty.exit14

24:                                               ; preds = %17
  %25 = getelementptr inbounds nuw i8, ptr %1, i64 32
  %26 = load i64, ptr %25, align 8, !tbaa !39
  %27 = getelementptr inbounds nuw i8, ptr %0, i64 32
  %28 = load i64, ptr %27, align 8, !tbaa !39
  %29 = srem i64 %26, %28
  %30 = icmp eq i64 %29, 0
  br i1 %30, label %31, label %ggml_is_empty.exit14

31:                                               ; preds = %24
  %32 = getelementptr inbounds nuw i8, ptr %1, i64 40
  %33 = load i64, ptr %32, align 8, !tbaa !39
  %34 = getelementptr inbounds nuw i8, ptr %0, i64 40
  %35 = load i64, ptr %34, align 8, !tbaa !39
  %36 = srem i64 %33, %35
  %37 = icmp eq i64 %36, 0
  br label %ggml_is_empty.exit14

ggml_is_empty.exit14:                             ; preds = %.preheader, %12, %17, %24, %31
  %38 = phi i1 [ false, %24 ], [ false, %17 ], [ false, %12 ], [ %37, %31 ], [ %11, %.preheader ]
  ret i1 %38
}